; Function Attrs: mustprogress uwtable
define internal void @"_ZNSt17_Function_handlerIFSt10unique_ptrIiSt14default_deleteIiEEvEZN8facebook5velox5cache7SsdFile10checkpointEbE3$_1E9_M_invokeERKSt9_Any_data"(ptr noalias nocapture writeonly sret(%"class.std::unique_ptr.141") align 8 %agg.result, ptr nocapture noundef nonnull readonly align 8 dereferenceable(16) %__functor) #4 align 2 personality ptr @__gxx_personality_v0 {
entry:
  %call.val = load i32, ptr %__functor, align 8
  tail call void @llvm.experimental.noalias.scope.decl(metadata !114)
  tail call void @llvm.experimental.noalias.scope.decl(metadata !117)
  tail call void @llvm.experimental.noalias.scope.decl(metadata !120)
  %call.i.i.i = tail call i32 @fsync(i32 noundef %call.val), !noalias !123
  tail call void @llvm.experimental.noalias.scope.decl(metadata !124)
  %call.i.i.i.i = tail call noalias noundef nonnull dereferenceable(4) ptr @_Znwm(i64 noundef 4) #37, !noalias !127
  store i32 %call.i.i.i, ptr %call.i.i.i.i, align 4, !noalias !127
  store ptr %call.i.i.i.i, ptr %agg.result, align 8, !alias.scope !127
  ret void
}